target datalayout = "e-m:e-p270:32:32-p271:32:32-p272:64:64-i64:64-i128:128-f80:128-n8:16:32:64-S128"
target triple = "x86_64-pc-linux-gnu"

@.str.111 = private unnamed_addr constant [6 x i8] c"%s=%s\00", align 1

; Function Attrs: mustprogress nounwind uwtable
define hidden noundef zeroext i1 @_ZN9Arguments22create_module_propertyEPKcS1_NS_16PropertyInternalE(ptr noundef %0, ptr noundef %1, i32 noundef %2) #1 align 2 {
  %4 = alloca i1, align 1
  %5 = alloca ptr, align 8
  %6 = alloca ptr, align 8
  %7 = alloca i32, align 4
  %8 = alloca i64, align 8
  %9 = alloca ptr, align 8
  %10 = alloca i32, align 4
  %11 = alloca i8, align 1
  store ptr %0, ptr %5, align 8
  store ptr %1, ptr %6, align 8
  store i32 %2, ptr %7, align 4
  %12 = load ptr, ptr %5, align 8
  %13 = load ptr, ptr %6, align 8
  call void @_ZN9CDSConfig30check_internal_module_propertyEPKcS1_(ptr noundef %12, ptr noundef %13)
  %14 = load ptr, ptr %5, align 8
  %15 = call i64 @strlen(ptr noundef %14) #12
  %16 = load ptr, ptr %6, align 8
  %17 = call i64 @strlen(ptr noundef %16) #12
  %18 = add i64 %15, %17
  %19 = add i64 %18, 2
  store i64 %19, ptr %8, align 8
  %20 = load i64, ptr %8, align 8
  %21 = call noundef ptr @_Z12AllocateHeapm8MEMFLAGSN17AllocFailStrategy13AllocFailEnumE(i64 noundef %20, i8 noundef zeroext 19, i32 noundef 0)
  store ptr %21, ptr %9, align 8
  %22 = load ptr, ptr %9, align 8
  %23 = load i64, ptr %8, align 8
  %24 = load ptr, ptr %5, align 8
  %25 = load ptr, ptr %6, align 8
  %26 = call i32 (ptr, i64, ptr, ...) @jio_snprintf(ptr noundef %22, i64 noundef %23, ptr noundef @.str.111, ptr noundef %24, ptr noundef %25)
  store i32 %26, ptr %10, align 4
  %27 = load i32, ptr %10, align 4
  %28 = icmp slt i32 %27, 0
  br i1 %28, label %34, label %29

29:                                               ; preds = %3
  %30 = load i32, ptr %10, align 4
  %31 = load i64, ptr %8, align 8
  %32 = trunc i64 %31 to i32
  %33 = icmp sge i32 %30, %32
  br i1 %33, label %34, label %36

34:                                               ; preds = %29, %3
  %35 = load ptr, ptr %9, align 8
  call void @_Z8FreeHeapPv(ptr noundef %35)
  store i1 false, ptr %4, align 1
  br label %44

36:                                               ; preds = %29
  %37 = load ptr, ptr %9, align 8
  %38 = load i32, ptr %7, align 4
  %39 = call noundef zeroext i1 @_ZN9Arguments12add_propertyEPKcNS_17PropertyWriteableENS_16PropertyInternalE(ptr noundef %37, i32 noundef 0, i32 noundef %38)
  %40 = zext i1 %39 to i8
  store i8 %40, ptr %11, align 1
  %41 = load ptr, ptr %9, align 8
  call void @_Z8FreeHeapPv(ptr noundef %41)
  %42 = load i8, ptr %11, align 1
  %43 = trunc i8 %42 to i1
  store i1 %43, ptr %4, align 1
  br label %44

44:                                               ; preds = %36, %34
  %45 = load i1, ptr %4, align 1
  ret i1 %45
}