; Function Attrs: mustprogress nounwind uwtable
define hidden noundef zeroext i1 @_ZN9Arguments22create_module_propertyEPKcS1_NS_16PropertyInternalE(ptr noundef %0, ptr noundef %1, i32 noundef %2) local_unnamed_addr #0 align 2 {
  tail call void @_ZN9CDSConfig30check_internal_module_propertyEPKcS1_(ptr noundef %0, ptr noundef %1) #31
  %4 = tail call i64 @strlen(ptr noundef nonnull dereferenceable(1) %0) #30
  %5 = tail call i64 @strlen(ptr noundef nonnull dereferenceable(1) %1) #30
  %6 = add i64 %4, 2
  %7 = add i64 %6, %5
  %8 = tail call noundef ptr @_Z12AllocateHeapm8MEMFLAGSN17AllocFailStrategy13AllocFailEnumE(i64 noundef %7, i8 noundef zeroext 19, i32 noundef 0) #31
  %9 = tail call i32 (ptr, i64, ptr, ...) @jio_snprintf(ptr noundef %8, i64 noundef %7, ptr noundef nonnull @.str.111, ptr noundef %0, ptr noundef %1) #31
  %10 = icmp sgt i32 %9, -1
  %11 = trunc i64 %7 to i32
  %.not = icmp slt i32 %9, %11
  %or.cond = and i1 %10, %.not
  br i1 %or.cond, label %12, label %14

12:                                               ; preds = %3
  %13 = tail call noundef zeroext i1 @_ZN9Arguments12add_propertyEPKcNS_17PropertyWriteableENS_16PropertyInternalE(ptr noundef %8, i32 noundef 0, i32 noundef %2)
  br label %14

14:                                               ; preds = %3, %12
  tail call void @_Z8FreeHeapPv(ptr noundef %8) #31
  ret i1 %or.cond
}